; Function Attrs: mustprogress nounwind uwtable
define hidden noundef zeroext i1 @_ZN10JavaThread11java_resumeEv(ptr noundef nonnull align 8 dereferenceable(1800) %0) local_unnamed_addr #0 align 2 {
  %2 = tail call noundef zeroext i1 @_ZN6Thread30is_JavaThread_protected_by_TLHEPK10JavaThread(ptr noundef nonnull %0) #21
  br i1 %2, label %5, label %3

3:                                                ; preds = %1
  %4 = load ptr, ptr @g_assert_poison, align 8
  store i8 88, ptr %4, align 1
  tail call void (ptr, i32, ptr, ptr, ...) @_Z15report_vm_errorPKciS0_S0_z(ptr noundef nonnull @.str, i32 noundef 1192, ptr noundef nonnull @.str.17, ptr noundef nonnull @.str.18) #22
  unreachable

5:                                                ; preds = %1
  %6 = getelementptr inbounds i8, ptr %0, i64 1384
  %7 = tail call noundef zeroext i1 @_ZN14HandshakeState6resumeEv(ptr noundef nonnull align 8 dereferenceable(131) %6) #21
  ret i1 %7
}